; Function Attrs: nounwind uwtable
define internal void @_init_content(ptr noundef %0, ptr nocapture noundef readonly %1) #0 {
  %3 = alloca i32, align 4
  %4 = getelementptr inbounds nuw i8, ptr %0, i64 464
  tail call void @lv_matrix_identity(ptr noundef nonnull %4) #9
  %5 = getelementptr inbounds nuw i8, ptr %1, i64 32
  %6 = load ptr, ptr %5, align 8, !tbaa !120
  %7 = load ptr, ptr @lv_text_get_encoded_length, align 8, !tbaa !4
  %8 = tail call i32 %7(ptr noundef %6) #9
  %9 = getelementptr inbounds nuw i8, ptr %0, i64 592
  store i32 %8, ptr %9, align 8, !tbaa !207
  %10 = zext i32 %8 to i64
  %11 = shl nuw nsw i64 %10, 2
  %12 = tail call ptr @lv_malloc(i64 noundef %11) #9
  %13 = getelementptr inbounds nuw i8, ptr %0, i64 584
  store ptr %12, ptr %13, align 8, !tbaa !208
  %.not = icmp eq ptr %12, null
  br i1 %.not, label %.preheader, label %14

.preheader:                                       ; preds = %2, %.preheader
  br label %.preheader

14:                                               ; preds = %2
  call void @llvm.lifetime.start.p0(i64 4, ptr nonnull %3) #9
  store i32 0, ptr %3, align 4, !tbaa !209
  %15 = load i32, ptr %9, align 8, !tbaa !207
  %.not15 = icmp eq i32 %15, 0
  br i1 %.not15, label %._crit_edge, label %.lr.ph

.lr.ph:                                           ; preds = %14
  %16 = load ptr, ptr @lv_text_encoded_next, align 8, !tbaa !4
  br label %17

._crit_edge:                                      ; preds = %17, %14
  call void @llvm.lifetime.end.p0(i64 4, ptr nonnull %3) #9
  ret void

17:                                               ; preds = %.lr.ph, %17
  %indvars.iv = phi i64 [ 0, %.lr.ph ], [ %indvars.iv.next, %17 ]
  %18 = call i32 %16(ptr noundef %6, ptr noundef nonnull %3) #9
  %19 = load ptr, ptr %13, align 8, !tbaa !208
  %20 = getelementptr inbounds nuw i32, ptr %19, i64 %indvars.iv
  store i32 %18, ptr %20, align 4, !tbaa !209
  %indvars.iv.next = add nuw nsw i64 %indvars.iv, 1
  %21 = load i32, ptr %9, align 8, !tbaa !207
  %22 = zext i32 %21 to i64
  %23 = icmp samesign ult i64 %indvars.iv.next, %22
  br i1 %23, label %17, label %._crit_edge, !llvm.loop !224
}